; ModuleID = '62/186.c'
source_filename = "62/186.c"
target datalayout = "e-m:e-p270:32:32-p271:32:32-p272:64:64-i64:64-f80:128-n8:16:32:64-S128"
target triple = "x86_64-pc-linux-gnu"

@.str = private unnamed_addr constant [3 x i8] c"%c\00", align 1

; Function Attrs: noinline nounwind uwtable
define dso_local i32 @main() #0 {
  %1 = alloca i32, align 4
  %2 = alloca [1000 x i8], align 16
  %3 = alloca i32, align 4
  %4 = alloca i32, align 4
  store i32 0, i32* %1, align 4
  %5 = getelementptr inbounds [1000 x i8], [1000 x i8]* %2, i64 0, i64 0
  %6 = call i32 (i8*, ...) bitcast (i32 (...)* @gets to i32 (i8*, ...)*)(i8* %5)
  %7 = getelementptr inbounds [1000 x i8], [1000 x i8]* %2, i64 0, i64 0
  %8 = call i64 @strlen(i8* %7) #3
  %9 = trunc i64 %8 to i32
  store i32 %9, i32* %3, align 4
  store i32 1, i32* %4, align 4
  br label %10

10:                                               ; preds = %66, %0
  %11 = load i32, i32* %4, align 4
  %12 = load i32, i32* %3, align 4
  %13 = sub nsw i32 %12, 1
  %14 = icmp slt i32 %11, %13
  br i1 %14, label %15, label %69

15:                                               ; preds = %10
  %16 = load i32, i32* %4, align 4
  %17 = sext i32 %16 to i64
  %18 = getelementptr inbounds [1000 x i8], [1000 x i8]* %2, i64 0, i64 %17
  %19 = load i8, i8* %18, align 1
  %20 = sext i8 %19 to i32
  %21 = icmp eq i32 %20, 32
  br i1 %21, label %22, label %65

22:                                               ; preds = %15
  %23 = load i32, i32* %4, align 4
  %24 = sub nsw i32 %23, 1
  %25 = sext i32 %24 to i64
  %26 = getelementptr inbounds [1000 x i8], [1000 x i8]* %2, i64 0, i64 %25
  %27 = load i8, i8* %26, align 1
  %28 = call i32 @zimu(i8 signext %27)
  %29 = icmp eq i32 %28, 1
  br i1 %29, label %30, label %43

30:                                               ; preds = %22
  %31 = load i32, i32* %4, align 4
  %32 = add nsw i32 %31, 1
  %33 = sext i32 %32 to i64
  %34 = getelementptr inbounds [1000 x i8], [1000 x i8]* %2, i64 0, i64 %33
  %35 = load i8, i8* %34, align 1
  %36 = call i32 @zimu(i8 signext %35)
  %37 = icmp eq i32 %36, 0
  br i1 %37, label %38, label %42

38:                                               ; preds = %30
  %39 = load i32, i32* %4, align 4
  %40 = sext i32 %39 to i64
  %41 = getelementptr inbounds [1000 x i8], [1000 x i8]* %2, i64 0, i64 %40
  store i8 49, i8* %41, align 1
  br label %42

42:                                               ; preds = %38, %30
  br label %43

43:                                               ; preds = %42, %22
  %44 = load i32, i32* %4, align 4
  %45 = sub nsw i32 %44, 1
  %46 = sext i32 %45 to i64
  %47 = getelementptr inbounds [1000 x i8], [1000 x i8]* %2, i64 0, i64 %46
  %48 = load i8, i8* %47, align 1
  %49 = call i32 @zimu(i8 signext %48)
  %50 = icmp eq i32 %49, 0
  br i1 %50, label %51, label %64

51:                                               ; preds = %43
  %52 = load i32, i32* %4, align 4
  %53 = add nsw i32 %52, 1
  %54 = sext i32 %53 to i64
  %55 = getelementptr inbounds [1000 x i8], [1000 x i8]* %2, i64 0, i64 %54
  %56 = load i8, i8* %55, align 1
  %57 = call i32 @zimu(i8 signext %56)
  %58 = icmp eq i32 %57, 0
  br i1 %58, label %59, label %63

59:                                               ; preds = %51
  %60 = load i32, i32* %4, align 4
  %61 = sext i32 %60 to i64
  %62 = getelementptr inbounds [1000 x i8], [1000 x i8]* %2, i64 0, i64 %61
  store i8 49, i8* %62, align 1
  br label %63

63:                                               ; preds = %59, %51
  br label %64

64:                                               ; preds = %63, %43
  br label %65

65:                                               ; preds = %64, %15
  br label %66

66:                                               ; preds = %65
  %67 = load i32, i32* %4, align 4
  %68 = add nsw i32 %67, 1
  store i32 %68, i32* %4, align 4
  br label %10

69:                                               ; preds = %10
  store i32 0, i32* %4, align 4
  br label %70

70:                                               ; preds = %89, %69
  %71 = load i32, i32* %4, align 4
  %72 = load i32, i32* %3, align 4
  %73 = icmp slt i32 %71, %72
  br i1 %73, label %74, label %92

74:                                               ; preds = %70
  %75 = load i32, i32* %4, align 4
  %76 = sext i32 %75 to i64
  %77 = getelementptr inbounds [1000 x i8], [1000 x i8]* %2, i64 0, i64 %76
  %78 = load i8, i8* %77, align 1
  %79 = sext i8 %78 to i32
  %80 = icmp ne i32 %79, 49
  br i1 %80, label %81, label %88

81:                                               ; preds = %74
  %82 = load i32, i32* %4, align 4
  %83 = sext i32 %82 to i64
  %84 = getelementptr inbounds [1000 x i8], [1000 x i8]* %2, i64 0, i64 %83
  %85 = load i8, i8* %84, align 1
  %86 = sext i8 %85 to i32
  %87 = call i32 (i8*, ...) @printf(i8* getelementptr inbounds ([3 x i8], [3 x i8]* @.str, i64 0, i64 0), i32 %86)
  br label %88

88:                                               ; preds = %81, %74
  br label %89

89:                                               ; preds = %88
  %90 = load i32, i32* %4, align 4
  %91 = add nsw i32 %90, 1
  store i32 %91, i32* %4, align 4
  br label %70

92:                                               ; preds = %70
  ret i32 0
}

declare dso_local i32 @gets(...) #1

; Function Attrs: nounwind readonly
declare dso_local i64 @strlen(i8*) #2

; Function Attrs: noinline nounwind uwtable
define dso_local i32 @zimu(i8 signext %0) #0 {
  %2 = alloca i8, align 1
  %3 = alloca i32, align 4
  store i8 %0, i8* %2, align 1
  %4 = load i8, i8* %2, align 1
  %5 = sext i8 %4 to i32
  %6 = icmp sge i32 %5, 65
  br i1 %6, label %7, label %11

7:                                                ; preds = %1
  %8 = load i8, i8* %2, align 1
  %9 = sext i8 %8 to i32
  %10 = icmp sle i32 %9, 90
  br i1 %10, label %19, label %11

11:                                               ; preds = %7, %1
  %12 = load i8, i8* %2, align 1
  %13 = sext i8 %12 to i32
  %14 = icmp sge i32 %13, 97
  br i1 %14, label %15, label %20

15:                                               ; preds = %11
  %16 = load i8, i8* %2, align 1
  %17 = sext i8 %16 to i32
  %18 = icmp sle i32 %17, 122
  br i1 %18, label %19, label %20

19:                                               ; preds = %15, %7
  store i32 1, i32* %3, align 4
  br label %21

20:                                               ; preds = %15, %11
  store i32 0, i32* %3, align 4
  br label %21

21:                                               ; preds = %20, %19
  %22 = load i32, i32* %3, align 4
  ret i32 %22
}

declare dso_local i32 @printf(i8*, ...) #1


!llvm.module.flags = !{!0}
!llvm.ident = !{!1}

!0 = !{i32 1, !"wchar_size", i32 4}
!1 = !{!"clang version 10.0.0-4ubuntu1 "}
